target datalayout = "e-m:e-p270:32:32-p271:32:32-p272:64:64-i64:64-i128:128-f80:128-n8:16:32:64-S128"
target triple = "x86_64-pc-linux-gnu"

%struct.cb_tree = type { ptr }
%struct.cb_node = type { [2 x ptr], i32, i8, [0 x i8] }

; Function Attrs: nounwind uwtable
define internal ptr @cb_node_of(ptr noundef %0) #0 {
  %2 = alloca ptr, align 8
  store ptr %0, ptr %2, align 8, !tbaa !25
  %3 = load ptr, ptr %2, align 8, !tbaa !25
  %4 = ptrtoint ptr %3 to i64
  %5 = sub i64 %4, 1
  %6 = inttoptr i64 %5 to ptr
  ret ptr %6
}

; Function Attrs: nounwind uwtable
define dso_local void @cb_each(ptr noundef %0, ptr noundef %1, i64 noundef %2, ptr noundef %3, ptr noundef %4) #0 {
  %6 = alloca ptr, align 8
  %7 = alloca ptr, align 8
  %8 = alloca i64, align 8
  %9 = alloca ptr, align 8
  %10 = alloca ptr, align 8
  %11 = alloca ptr, align 8
  %12 = alloca ptr, align 8
  %13 = alloca i64, align 8
  %14 = alloca i32, align 4
  %15 = alloca ptr, align 8
  %16 = alloca i8, align 1
  %17 = alloca i64, align 8
  store ptr %0, ptr %6, align 8, !tbaa !4
  store ptr %1, ptr %7, align 8, !tbaa !22
  store i64 %2, ptr %8, align 8, !tbaa !11
  store ptr %3, ptr %9, align 8, !tbaa !25
  store ptr %4, ptr %10, align 8, !tbaa !25
  call void @llvm.lifetime.start.p0(i64 8, ptr %11) #3
  %18 = load ptr, ptr %6, align 8, !tbaa !4
  %19 = getelementptr inbounds nuw %struct.cb_tree, ptr %18, i32 0, i32 0
  %20 = load ptr, ptr %19, align 8, !tbaa !13
  store ptr %20, ptr %11, align 8, !tbaa !9
  call void @llvm.lifetime.start.p0(i64 8, ptr %12) #3
  %21 = load ptr, ptr %11, align 8, !tbaa !9
  store ptr %21, ptr %12, align 8, !tbaa !9
  call void @llvm.lifetime.start.p0(i64 8, ptr %13) #3
  store i64 0, ptr %13, align 8, !tbaa !11
  %22 = load ptr, ptr %11, align 8, !tbaa !9
  %23 = icmp ne ptr %22, null
  br i1 %23, label %25, label %24

24:                                               ; preds = %5
  store i32 1, ptr %14, align 4
  br label %105

25:                                               ; preds = %5
  br label %26

26:                                               ; preds = %76, %25
  %27 = load ptr, ptr %11, align 8, !tbaa !9
  %28 = ptrtoint ptr %27 to i64
  %29 = and i64 1, %28
  %30 = icmp ne i64 %29, 0
  br i1 %30, label %31, label %77

31:                                               ; preds = %26
  call void @llvm.lifetime.start.p0(i64 8, ptr %15) #3
  %32 = load ptr, ptr %11, align 8, !tbaa !9
  %33 = call ptr @cb_node_of(ptr noundef %32)
  store ptr %33, ptr %15, align 8, !tbaa !9
  call void @llvm.lifetime.start.p0(i64 1, ptr %16) #3
  %34 = load ptr, ptr %15, align 8, !tbaa !9
  %35 = getelementptr inbounds nuw %struct.cb_node, ptr %34, i32 0, i32 1
  %36 = load i32, ptr %35, align 8, !tbaa !18
  %37 = zext i32 %36 to i64
  %38 = load i64, ptr %8, align 8, !tbaa !11
  %39 = icmp ult i64 %37, %38
  br i1 %39, label %40, label %49

40:                                               ; preds = %31
  %41 = load ptr, ptr %7, align 8, !tbaa !22
  %42 = load ptr, ptr %15, align 8, !tbaa !9
  %43 = getelementptr inbounds nuw %struct.cb_node, ptr %42, i32 0, i32 1
  %44 = load i32, ptr %43, align 8, !tbaa !18
  %45 = zext i32 %44 to i64
  %46 = getelementptr inbounds nuw i8, ptr %41, i64 %45
  %47 = load i8, ptr %46, align 1, !tbaa !15
  %48 = zext i8 %47 to i32
  br label %50

49:                                               ; preds = %31
  br label %50

50:                                               ; preds = %49, %40
  %51 = phi i32 [ %48, %40 ], [ 0, %49 ]
  %52 = trunc i32 %51 to i8
  store i8 %52, ptr %16, align 1, !tbaa !15
  call void @llvm.lifetime.start.p0(i64 8, ptr %17) #3
  %53 = load ptr, ptr %15, align 8, !tbaa !9
  %54 = getelementptr inbounds nuw %struct.cb_node, ptr %53, i32 0, i32 2
  %55 = load i8, ptr %54, align 4, !tbaa !15
  %56 = zext i8 %55 to i32
  %57 = load i8, ptr %16, align 1, !tbaa !15
  %58 = zext i8 %57 to i32
  %59 = or i32 %56, %58
  %60 = add nsw i32 1, %59
  %61 = ashr i32 %60, 8
  %62 = sext i32 %61 to i64
  store i64 %62, ptr %17, align 8, !tbaa !11
  %63 = load ptr, ptr %15, align 8, !tbaa !9
  %64 = getelementptr inbounds nuw %struct.cb_node, ptr %63, i32 0, i32 0
  %65 = load i64, ptr %17, align 8, !tbaa !11
  %66 = getelementptr inbounds nuw [2 x ptr], ptr %64, i64 0, i64 %65
  %67 = load ptr, ptr %66, align 8, !tbaa !9
  store ptr %67, ptr %11, align 8, !tbaa !9
  %68 = load ptr, ptr %15, align 8, !tbaa !9
  %69 = getelementptr inbounds nuw %struct.cb_node, ptr %68, i32 0, i32 1
  %70 = load i32, ptr %69, align 8, !tbaa !18
  %71 = zext i32 %70 to i64
  %72 = load i64, ptr %8, align 8, !tbaa !11
  %73 = icmp ult i64 %71, %72
  br i1 %73, label %74, label %76

74:                                               ; preds = %50
  %75 = load ptr, ptr %11, align 8, !tbaa !9
  store ptr %75, ptr %12, align 8, !tbaa !9
  br label %76

76:                                               ; preds = %74, %50
  call void @llvm.lifetime.end.p0(i64 8, ptr %17) #3
  call void @llvm.lifetime.end.p0(i64 1, ptr %16) #3
  call void @llvm.lifetime.end.p0(i64 8, ptr %15) #3
  br label %26, !llvm.loop !26

77:                                               ; preds = %26
  store i64 0, ptr %13, align 8, !tbaa !11
  br label %78

78:                                               ; preds = %97, %77
  %79 = load i64, ptr %13, align 8, !tbaa !11
  %80 = load i64, ptr %8, align 8, !tbaa !11
  %81 = icmp ult i64 %79, %80
  br i1 %81, label %82, label %100

82:                                               ; preds = %78
  %83 = load ptr, ptr %11, align 8, !tbaa !9
  %84 = getelementptr inbounds nuw %struct.cb_node, ptr %83, i32 0, i32 3
  %85 = load i64, ptr %13, align 8, !tbaa !11
  %86 = getelementptr inbounds nuw [0 x i8], ptr %84, i64 0, i64 %85
  %87 = load i8, ptr %86, align 1, !tbaa !15
  %88 = zext i8 %87 to i32
  %89 = load ptr, ptr %7, align 8, !tbaa !22
  %90 = load i64, ptr %13, align 8, !tbaa !11
  %91 = getelementptr inbounds nuw i8, ptr %89, i64 %90
  %92 = load i8, ptr %91, align 1, !tbaa !15
  %93 = zext i8 %92 to i32
  %94 = icmp ne i32 %88, %93
  br i1 %94, label %95, label %96

95:                                               ; preds = %82
  store i32 1, ptr %14, align 4
  br label %105

96:                                               ; preds = %82
  br label %97

97:                                               ; preds = %96
  %98 = load i64, ptr %13, align 8, !tbaa !11
  %99 = add i64 %98, 1
  store i64 %99, ptr %13, align 8, !tbaa !11
  br label %78, !llvm.loop !27

100:                                              ; preds = %78
  %101 = load ptr, ptr %12, align 8, !tbaa !9
  %102 = load ptr, ptr %9, align 8, !tbaa !25
  %103 = load ptr, ptr %10, align 8, !tbaa !25
  %104 = call i32 @cb_descend(ptr noundef %101, ptr noundef %102, ptr noundef %103)
  store i32 0, ptr %14, align 4
  br label %105

105:                                              ; preds = %100, %95, %24
  call void @llvm.lifetime.end.p0(i64 8, ptr %13) #3
  call void @llvm.lifetime.end.p0(i64 8, ptr %12) #3
  call void @llvm.lifetime.end.p0(i64 8, ptr %11) #3
  %106 = load i32, ptr %14, align 4
  switch i32 %106, label %108 [
    i32 0, label %107
    i32 1, label %107
  ]

107:                                              ; preds = %105, %105
  ret void

108:                                              ; preds = %105
  unreachable
}