; Function Attrs: nounwind uwtable
define dso_local void @cb_each(ptr noundef readonly captures(none) %0, ptr noundef readonly captures(none) %1, i64 noundef %2, ptr noundef readonly captures(none) %3, ptr noundef %4) local_unnamed_addr #2 {
  %6 = load ptr, ptr %0, align 8, !tbaa !4
  %.not = icmp eq ptr %6, null
  br i1 %.not, label %.loopexit, label %.preheader31

.preheader31:                                     ; preds = %5
  %7 = ptrtoint ptr %6 to i64
  %8 = and i64 %7, 1
  %.not2932 = icmp eq i64 %8, 0
  br i1 %.not2932, label %.preheader, label %.lr.ph

.preheader:                                       ; preds = %21, %.preheader31
  %.025.lcssa = phi ptr [ %6, %.preheader31 ], [ %spec.select, %21 ]
  %.0.lcssa = phi ptr [ %6, %.preheader31 ], [ %30, %21 ]
  %.not37 = icmp eq i64 %2, 0
  br i1 %.not37, label %._crit_edge, label %.lr.ph36

.lr.ph36:                                         ; preds = %.preheader
  %9 = getelementptr inbounds nuw i8, ptr %.0.lcssa, i64 21
  br label %35

.lr.ph:                                           ; preds = %.preheader31, %21
  %10 = phi i64 [ %31, %21 ], [ %7, %.preheader31 ]
  %.02533 = phi ptr [ %spec.select, %21 ], [ %6, %.preheader31 ]
  %11 = add nsw i64 %10, -1
  %12 = inttoptr i64 %11 to ptr
  %13 = getelementptr inbounds nuw i8, ptr %12, i64 16
  %14 = load i32, ptr %13, align 8, !tbaa !10
  %15 = zext i32 %14 to i64
  %16 = icmp ugt i64 %2, %15
  br i1 %16, label %17, label %21

17:                                               ; preds = %.lr.ph
  %18 = getelementptr inbounds nuw i8, ptr %1, i64 %15
  %19 = load i8, ptr %18, align 1, !tbaa !12
  %20 = zext i8 %19 to i64
  br label %21

21:                                               ; preds = %.lr.ph, %17
  %22 = phi i64 [ %20, %17 ], [ 0, %.lr.ph ]
  %23 = getelementptr inbounds nuw i8, ptr %12, i64 20
  %24 = load i8, ptr %23, align 4, !tbaa !12
  %25 = zext i8 %24 to i64
  %26 = or i64 %22, %25
  %27 = add nuw nsw i64 %26, 1
  %28 = lshr i64 %27, 8
  %29 = getelementptr inbounds nuw [2 x ptr], ptr %12, i64 0, i64 %28
  %30 = load ptr, ptr %29, align 8, !tbaa !13
  %spec.select = select i1 %16, ptr %30, ptr %.02533
  %31 = ptrtoint ptr %30 to i64
  %32 = and i64 %31, 1
  %.not29 = icmp eq i64 %32, 0
  br i1 %.not29, label %.preheader, label %.lr.ph, !llvm.loop !17

33:                                               ; preds = %35
  %34 = add nuw i64 %.02635, 1
  %exitcond.not = icmp eq i64 %34, %2
  br i1 %exitcond.not, label %._crit_edge, label %35, !llvm.loop !18

35:                                               ; preds = %.lr.ph36, %33
  %.02635 = phi i64 [ 0, %.lr.ph36 ], [ %34, %33 ]
  %36 = getelementptr inbounds nuw [0 x i8], ptr %9, i64 0, i64 %.02635
  %37 = load i8, ptr %36, align 1, !tbaa !12
  %38 = getelementptr inbounds nuw i8, ptr %1, i64 %.02635
  %39 = load i8, ptr %38, align 1, !tbaa !12
  %.not30 = icmp eq i8 %37, %39
  br i1 %.not30, label %33, label %.loopexit

._crit_edge:                                      ; preds = %33, %.preheader
  %40 = tail call fastcc i32 @cb_descend(ptr noundef %.025.lcssa, ptr noundef %3, ptr noundef %4)
  br label %.loopexit

.loopexit:                                        ; preds = %35, %5, %._crit_edge
  ret void
}